target datalayout = "e-m:e-p270:32:32-p271:32:32-p272:64:64-i64:64-i128:128-f80:128-n8:16:32:64-S128"
target triple = "x86_64-pc-linux-gnu"

%struct.busmaster_state_t = type { ptr, i64, ptr, i32, ptr, %struct.token_t, i32, %struct.busmaster_priv_t, %struct.msg_t }
%struct.token_t = type { i64, i64, i64, i64 }
%struct.busmaster_priv_t = type { i64, i64, i32, i32, i32, %struct.msg_date_t, %struct.msg_time_t }
%struct.msg_date_t = type { i32, i32, i32 }
%struct.msg_time_t = type { i32, i32, i32, i32 }
%struct.msg_t = type { %struct.msg_time_t, i32, i32, %struct.msg_data_t }
%struct.msg_data_t = type { i32, [64 x i8] }
%struct.wtap = type { ptr, ptr, i8, i32, i32, ptr, ptr, ptr, i32, ptr, ptr, ptr, ptr, ptr, ptr, ptr, ptr, ptr, ptr, i32, i32, ptr, ptr, ptr, ptr }
%struct._GSList = type { ptr, ptr }

@.str.3 = private unnamed_addr constant [17 x i8] c"Malformed header\00", align 1
@.str.4 = private unnamed_addr constant [23 x i8] c"Failed to read a frame\00", align 1

; Function Attrs: nounwind null_pointer_is_valid sspstrong uwtable
define internal ptr @busmaster_find_priv_entry(ptr noundef %0, i64 noundef %1) #5 {
  %3 = alloca ptr, align 8
  %4 = alloca ptr, align 8
  %5 = alloca i64, align 8
  %6 = alloca ptr, align 8
  %7 = alloca ptr, align 8
  %8 = alloca i32, align 4
  store ptr %0, ptr %4, align 8
  store i64 %1, ptr %5, align 8
  call void @llvm.lifetime.start.p0(i64 8, ptr %6) #14
  %9 = load ptr, ptr %4, align 8
  store ptr %9, ptr %6, align 8
  br label %10

10:                                               ; preds = %58, %2
  %11 = load ptr, ptr %6, align 8
  %12 = icmp ne ptr %11, null
  br i1 %12, label %13, label %60

13:                                               ; preds = %10
  call void @llvm.lifetime.start.p0(i64 8, ptr %7) #14
  %14 = load ptr, ptr %6, align 8
  %15 = getelementptr inbounds nuw %struct._GSList, ptr %14, i32 0, i32 0
  %16 = load ptr, ptr %15, align 8
  store ptr %16, ptr %7, align 8
  %17 = load ptr, ptr %7, align 8
  %18 = getelementptr inbounds nuw %struct.busmaster_priv_t, ptr %17, i32 0, i32 1
  %19 = load i64, ptr %18, align 8
  %20 = icmp eq i64 %19, -1
  br i1 %20, label %21, label %32

21:                                               ; preds = %13
  %22 = load ptr, ptr %6, align 8
  %23 = icmp ne ptr %22, null
  br i1 %23, label %24, label %28

24:                                               ; preds = %21
  %25 = load ptr, ptr %6, align 8
  %26 = getelementptr inbounds nuw %struct._GSList, ptr %25, i32 0, i32 1
  %27 = load ptr, ptr %26, align 8
  br label %29

28:                                               ; preds = %21
  br label %29

29:                                               ; preds = %28, %24
  %30 = phi ptr [ %27, %24 ], [ null, %28 ]
  %31 = icmp eq ptr %30, null
  br i1 %31, label %44, label %32

32:                                               ; preds = %29, %13
  %33 = load i64, ptr %5, align 8
  %34 = load ptr, ptr %7, align 8
  %35 = getelementptr inbounds nuw %struct.busmaster_priv_t, ptr %34, i32 0, i32 0
  %36 = load i64, ptr %35, align 8
  %37 = icmp sge i64 %33, %36
  br i1 %37, label %38, label %46

38:                                               ; preds = %32
  %39 = load i64, ptr %5, align 8
  %40 = load ptr, ptr %7, align 8
  %41 = getelementptr inbounds nuw %struct.busmaster_priv_t, ptr %40, i32 0, i32 1
  %42 = load i64, ptr %41, align 8
  %43 = icmp sle i64 %39, %42
  br i1 %43, label %44, label %46

44:                                               ; preds = %38, %29
  %45 = load ptr, ptr %7, align 8
  store ptr %45, ptr %3, align 8
  store i32 1, ptr %8, align 4
  br label %47

46:                                               ; preds = %38, %32
  store i32 0, ptr %8, align 4
  br label %47

47:                                               ; preds = %46, %44
  call void @llvm.lifetime.end.p0(i64 8, ptr %7) #14
  %48 = load i32, ptr %8, align 4
  switch i32 %48, label %61 [
    i32 0, label %49
  ]

49:                                               ; preds = %47
  br label %50

50:                                               ; preds = %49
  %51 = load ptr, ptr %6, align 8
  %52 = icmp ne ptr %51, null
  br i1 %52, label %53, label %57

53:                                               ; preds = %50
  %54 = load ptr, ptr %6, align 8
  %55 = getelementptr inbounds nuw %struct._GSList, ptr %54, i32 0, i32 1
  %56 = load ptr, ptr %55, align 8
  br label %58

57:                                               ; preds = %50
  br label %58

58:                                               ; preds = %57, %53
  %59 = phi ptr [ %56, %53 ], [ null, %57 ]
  store ptr %59, ptr %6, align 8
  br label %10, !llvm.loop !11

60:                                               ; preds = %10
  store ptr null, ptr %3, align 8
  store i32 1, ptr %8, align 4
  br label %61

61:                                               ; preds = %60, %47
  call void @llvm.lifetime.end.p0(i64 8, ptr %6) #14
  %62 = load ptr, ptr %3, align 8
  ret ptr %62
}

; Function Attrs: null_pointer_is_valid sspstrong uwtable
define internal zeroext i1 @busmaster_seek_read(ptr noundef %0, i64 noundef %1, ptr noundef %2, ptr noundef %3, ptr noundef %4) #0 {
  %6 = alloca i1, align 1
  %7 = alloca ptr, align 8
  %8 = alloca i64, align 8
  %9 = alloca ptr, align 8
  %10 = alloca ptr, align 8
  %11 = alloca ptr, align 8
  %12 = alloca ptr, align 8
  %13 = alloca %struct.busmaster_state_t, align 8
  %14 = alloca i32, align 4
  %15 = alloca i32, align 4
  store ptr %0, ptr %7, align 8
  store i64 %1, ptr %8, align 8
  store ptr %2, ptr %9, align 8
  store ptr %3, ptr %10, align 8
  store ptr %4, ptr %11, align 8
  call void @llvm.lifetime.start.p0(i64 8, ptr %12) #14
  call void @llvm.lifetime.start.p0(i64 232, ptr %13) #14
  call void @llvm.memset.p0.i64(ptr align 8 %13, i8 0, i64 232, i1 false)
  call void @llvm.lifetime.start.p0(i64 4, ptr %14) #14
  %16 = load ptr, ptr %7, align 8
  %17 = getelementptr inbounds nuw %struct.wtap, ptr %16, i32 0, i32 13
  %18 = load ptr, ptr %17, align 8
  %19 = load i64, ptr %8, align 8
  %20 = call ptr @busmaster_find_priv_entry(ptr noundef %18, i64 noundef %19)
  store ptr %20, ptr %12, align 8
  %21 = load ptr, ptr %12, align 8
  %22 = icmp ne ptr %21, null
  br i1 %22, label %27, label %23

23:                                               ; preds = %5
  %24 = load ptr, ptr %10, align 8
  store i32 -13, ptr %24, align 4
  %25 = call noalias ptr @g_strdup(ptr noundef @.str.3)
  %26 = load ptr, ptr %11, align 8
  store ptr %25, ptr %26, align 8
  store i1 false, ptr %6, align 1
  store i32 1, ptr %15, align 4
  br label %65

27:                                               ; preds = %5
  %28 = load ptr, ptr %7, align 8
  %29 = getelementptr inbounds nuw %struct.wtap, ptr %28, i32 0, i32 1
  %30 = load ptr, ptr %29, align 8
  %31 = load i64, ptr %8, align 8
  %32 = load ptr, ptr %10, align 8
  %33 = call i64 @file_seek(ptr noundef %30, i64 noundef %31, i32 noundef 0, ptr noundef %32)
  %34 = icmp eq i64 %33, -1
  br i1 %34, label %35, label %36

35:                                               ; preds = %27
  store i1 false, ptr %6, align 1
  store i32 1, ptr %15, align 4
  br label %65

36:                                               ; preds = %27
  %37 = getelementptr inbounds nuw %struct.busmaster_state_t, ptr %13, i32 0, i32 7
  %38 = load ptr, ptr %12, align 8
  call void @llvm.memcpy.p0.p0.i64(ptr align 8 %37, ptr align 8 %38, i64 56, i1 false)
  %39 = load ptr, ptr %7, align 8
  %40 = getelementptr inbounds nuw %struct.wtap, ptr %39, i32 0, i32 1
  %41 = load ptr, ptr %40, align 8
  %42 = load ptr, ptr %10, align 8
  %43 = load ptr, ptr %11, align 8
  %44 = call i32 @busmaster_parse(ptr noundef %41, ptr noundef %13, ptr noundef %42, ptr noundef %43)
  store i32 %44, ptr %14, align 4
  %45 = load i32, ptr %14, align 4
  %46 = icmp eq i32 %45, -1
  br i1 %46, label %50, label %47

47:                                               ; preds = %36
  %48 = load i32, ptr %14, align 4
  %49 = icmp eq i32 %48, 0
  br i1 %49, label %50, label %51

50:                                               ; preds = %47, %36
  store i1 false, ptr %6, align 1
  store i32 1, ptr %15, align 4
  br label %65

51:                                               ; preds = %47
  %52 = load i32, ptr %14, align 4
  %53 = icmp ne i32 %52, 5
  br i1 %53, label %54, label %58

54:                                               ; preds = %51
  %55 = load ptr, ptr %10, align 8
  store i32 -13, ptr %55, align 4
  %56 = call noalias ptr @g_strdup(ptr noundef @.str.4)
  %57 = load ptr, ptr %11, align 8
  store ptr %56, ptr %57, align 8
  store i1 false, ptr %6, align 1
  store i32 1, ptr %15, align 4
  br label %65

58:                                               ; preds = %51
  %59 = load ptr, ptr %9, align 8
  %60 = load ptr, ptr %12, align 8
  %61 = getelementptr inbounds nuw %struct.busmaster_state_t, ptr %13, i32 0, i32 8
  %62 = load ptr, ptr %10, align 8
  %63 = load ptr, ptr %11, align 8
  %64 = call zeroext i1 @busmaster_gen_packet(ptr noundef %59, ptr noundef %60, ptr noundef %61, ptr noundef %62, ptr noundef %63)
  store i1 %64, ptr %6, align 1
  store i32 1, ptr %15, align 4
  br label %65

65:                                               ; preds = %58, %54, %50, %35, %23
  call void @llvm.lifetime.end.p0(i64 4, ptr %14) #14
  call void @llvm.lifetime.end.p0(i64 232, ptr %13) #14
  call void @llvm.lifetime.end.p0(i64 8, ptr %12) #14
  %66 = load i1, ptr %6, align 1
  ret i1 %66
}