; Function Attrs: null_pointer_is_valid sspstrong uwtable
define internal noundef zeroext i1 @busmaster_seek_read(ptr noundef readonly captures(none) %0, i64 noundef %1, ptr noundef %2, ptr noundef %3, ptr noundef %4) #0 {
  %6 = alloca %struct.busmaster_state_t, align 8
  call void @llvm.lifetime.start.p0(i64 232, ptr nonnull %6) #10
  call void @llvm.memset.p0.i64(ptr noundef nonnull align 8 dereferenceable(232) %6, i8 0, i64 232, i1 false)
  %7 = getelementptr inbounds nuw i8, ptr %0, i64 96
  %8 = load ptr, ptr %7, align 8
  %.not21.i = icmp eq ptr %8, null
  br i1 %.not21.i, label %busmaster_find_priv_entry.exit.thread, label %.lr.ph.i

.lr.ph.i:                                         ; preds = %5, %19
  %.01522.i = phi ptr [ %21, %19 ], [ %8, %5 ]
  %9 = load ptr, ptr %.01522.i, align 8
  %10 = getelementptr inbounds nuw i8, ptr %9, i64 8
  %11 = load i64, ptr %10, align 8
  %12 = icmp eq i64 %11, -1
  br i1 %12, label %13, label %17

13:                                               ; preds = %.lr.ph.i
  %14 = getelementptr inbounds nuw i8, ptr %.01522.i, i64 8
  %15 = load ptr, ptr %14, align 8
  %16 = icmp eq ptr %15, null
  br i1 %16, label %busmaster_find_priv_entry.exit, label %17

17:                                               ; preds = %13, %.lr.ph.i
  %18 = load i64, ptr %9, align 8
  %.not17.i = icmp slt i64 %1, %18
  %.not18.i = icmp sgt i64 %1, %11
  %or.cond.i = or i1 %.not18.i, %.not17.i
  br i1 %or.cond.i, label %19, label %busmaster_find_priv_entry.exit

19:                                               ; preds = %17
  %20 = getelementptr inbounds nuw i8, ptr %.01522.i, i64 8
  %21 = load ptr, ptr %20, align 8
  %.not.i = icmp eq ptr %21, null
  br i1 %.not.i, label %busmaster_find_priv_entry.exit.thread, label %.lr.ph.i, !llvm.loop !8

busmaster_find_priv_entry.exit:                   ; preds = %13, %17
  %.not = icmp eq ptr %9, null
  br i1 %.not, label %busmaster_find_priv_entry.exit.thread, label %23

busmaster_find_priv_entry.exit.thread:            ; preds = %19, %5, %busmaster_find_priv_entry.exit
  store i32 -13, ptr %3, align 4
  %22 = tail call noalias ptr @g_strdup(ptr noundef nonnull @.str.3)
  store ptr %22, ptr %4, align 8
  br label %39

23:                                               ; preds = %busmaster_find_priv_entry.exit
  %24 = getelementptr inbounds nuw i8, ptr %0, i64 8
  %25 = load ptr, ptr %24, align 8
  %26 = tail call i64 @file_seek(ptr noundef %25, i64 noundef %1, i32 noundef 0, ptr noundef %3)
  %27 = icmp eq i64 %26, -1
  br i1 %27, label %39, label %28

28:                                               ; preds = %23
  %29 = getelementptr inbounds nuw i8, ptr %6, i64 80
  call void @llvm.memcpy.p0.p0.i64(ptr noundef nonnull align 8 dereferenceable(56) %29, ptr noundef nonnull align 8 dereferenceable(56) %9, i64 56, i1 false)
  %30 = load ptr, ptr %24, align 8
  %31 = call fastcc i32 @busmaster_parse(ptr noundef %30, ptr noundef nonnull %6, ptr noundef %3, ptr noundef %4)
  %32 = add i32 %31, 1
  %or.cond = icmp ult i32 %32, 2
  br i1 %or.cond, label %39, label %33

33:                                               ; preds = %28
  %.not24 = icmp eq i32 %31, 5
  br i1 %.not24, label %36, label %34

34:                                               ; preds = %33
  store i32 -13, ptr %3, align 4
  %35 = call noalias ptr @g_strdup(ptr noundef nonnull @.str.4)
  store ptr %35, ptr %4, align 8
  br label %39

36:                                               ; preds = %33
  %37 = getelementptr inbounds nuw i8, ptr %6, i64 136
  %38 = call fastcc zeroext i1 @busmaster_gen_packet(ptr noundef %2, ptr noundef nonnull %9, ptr noundef nonnull %37, ptr noundef %3, ptr noundef %4)
  br label %39

39:                                               ; preds = %28, %23, %36, %34, %busmaster_find_priv_entry.exit.thread
  %.0 = phi i1 [ false, %34 ], [ %38, %36 ], [ false, %busmaster_find_priv_entry.exit.thread ], [ false, %23 ], [ false, %28 ]
  call void @llvm.lifetime.end.p0(i64 232, ptr nonnull %6) #10
  ret i1 %.0
}